target datalayout = "e-m:e-p270:32:32-p271:32:32-p272:64:64-i64:64-i128:128-f80:128-n8:16:32:64-S128"
target triple = "x86_64-unknown-linux-gnu"

%"class.icu_75::RBBIDataWrapper" = type <{ ptr, ptr, ptr, ptr, ptr, i32, [4 x i8], ptr, %"struct.std::atomic", [4 x i8], ptr, %"class.icu_75::UnicodeString", i8, [7 x i8] }>
%"struct.std::atomic" = type { %"struct.std::__atomic_base" }
%"struct.std::__atomic_base" = type { i32 }
%"class.icu_75::UnicodeString" = type { %"class.icu_75::Replaceable", %"union.icu_75::UnicodeString::StackBufferOrFields" }
%"class.icu_75::Replaceable" = type { %"class.icu_75::UObject" }
%"class.icu_75::UObject" = type { ptr }
%"union.icu_75::UnicodeString::StackBufferOrFields" = type { %struct.anon.0, [32 x i8] }
%struct.anon.0 = type { i16, i32, i32, ptr }

; Function Attrs: mustprogress nounwind uwtable
define void @_ZN6icu_7515RBBIDataWrapperD2Ev(ptr noundef nonnull align 8 dereferenceable(137) %this) unnamed_addr #1 align 2 personality ptr @__gxx_personality_v0 {
entry:
  %this.addr = alloca ptr, align 8
  store ptr %this, ptr %this.addr, align 8
  %this1 = load ptr, ptr %this.addr, align 8
  %fTrie = getelementptr inbounds %"class.icu_75::RBBIDataWrapper", ptr %this1, i32 0, i32 7
  %0 = load ptr, ptr %fTrie, align 8
  invoke void @ucptrie_close_75(ptr noundef %0)
          to label %invoke.cont unwind label %terminate.lpad

invoke.cont:                                      ; preds = %entry
  %fTrie2 = getelementptr inbounds %"class.icu_75::RBBIDataWrapper", ptr %this1, i32 0, i32 7
  store ptr null, ptr %fTrie2, align 8
  %fUDataMem = getelementptr inbounds %"class.icu_75::RBBIDataWrapper", ptr %this1, i32 0, i32 10
  %1 = load ptr, ptr %fUDataMem, align 8
  %tobool = icmp ne ptr %1, null
  br i1 %tobool, label %if.then, label %if.else

if.then:                                          ; preds = %invoke.cont
  %fUDataMem3 = getelementptr inbounds %"class.icu_75::RBBIDataWrapper", ptr %this1, i32 0, i32 10
  %2 = load ptr, ptr %fUDataMem3, align 8
  invoke void @udata_close_75(ptr noundef %2)
          to label %invoke.cont4 unwind label %terminate.lpad

invoke.cont4:                                     ; preds = %if.then
  br label %if.end8

if.else:                                          ; preds = %invoke.cont
  %fDontFreeData = getelementptr inbounds %"class.icu_75::RBBIDataWrapper", ptr %this1, i32 0, i32 12
  %3 = load i8, ptr %fDontFreeData, align 8
  %tobool5 = icmp ne i8 %3, 0
  br i1 %tobool5, label %if.end, label %if.then6

if.then6:                                         ; preds = %if.else
  %fHeader = getelementptr inbounds %"class.icu_75::RBBIDataWrapper", ptr %this1, i32 0, i32 0
  %4 = load ptr, ptr %fHeader, align 8
  invoke void @uprv_free_75(ptr noundef %4)
          to label %invoke.cont7 unwind label %terminate.lpad

invoke.cont7:                                     ; preds = %if.then6
  br label %if.end

if.end:                                           ; preds = %invoke.cont7, %if.else
  br label %if.end8

if.end8:                                          ; preds = %if.end, %invoke.cont4
  %fRuleString = getelementptr inbounds %"class.icu_75::RBBIDataWrapper", ptr %this1, i32 0, i32 11
  call void @_ZN6icu_7513UnicodeStringD1Ev(ptr noundef nonnull align 8 dereferenceable(64) %fRuleString) #8
  ret void

terminate.lpad:                                   ; preds = %if.then6, %if.then, %entry
  %5 = landingpad { ptr, i32 }
          catch ptr null
  %6 = extractvalue { ptr, i32 } %5, 0
  call void @__clang_call_terminate(ptr %6) #9
  unreachable
}