; Function Attrs: mustprogress nounwind uwtable
define void @_ZN6icu_7515RBBIDataWrapperD2Ev(ptr noundef nonnull align 8 dereferenceable(137) %this) unnamed_addr #5 align 2 personality ptr @__gxx_personality_v0 {
entry:
  %fTrie = getelementptr inbounds i8, ptr %this, i64 48
  %0 = load ptr, ptr %fTrie, align 8
  invoke void @ucptrie_close_75(ptr noundef %0)
          to label %invoke.cont unwind label %terminate.lpad

invoke.cont:                                      ; preds = %entry
  store ptr null, ptr %fTrie, align 8
  %fUDataMem = getelementptr inbounds i8, ptr %this, i64 64
  %1 = load ptr, ptr %fUDataMem, align 8
  %tobool.not = icmp eq ptr %1, null
  br i1 %tobool.not, label %if.else, label %if.then

if.then:                                          ; preds = %invoke.cont
  invoke void @udata_close_75(ptr noundef nonnull %1)
          to label %if.end8 unwind label %terminate.lpad

if.else:                                          ; preds = %invoke.cont
  %fDontFreeData = getelementptr inbounds i8, ptr %this, i64 136
  %2 = load i8, ptr %fDontFreeData, align 8
  %tobool5.not = icmp eq i8 %2, 0
  br i1 %tobool5.not, label %if.then6, label %if.end8

if.then6:                                         ; preds = %if.else
  %3 = load ptr, ptr %this, align 8
  invoke void @uprv_free_75(ptr noundef %3)
          to label %if.end8 unwind label %terminate.lpad

if.end8:                                          ; preds = %if.else, %if.then6, %if.then
  %fRuleString = getelementptr inbounds i8, ptr %this, i64 72
  tail call void @_ZN6icu_7513UnicodeStringD1Ev(ptr noundef nonnull align 8 dereferenceable(64) %fRuleString) #13
  ret void

terminate.lpad:                                   ; preds = %if.then6, %if.then, %entry
  %4 = landingpad { ptr, i32 }
          catch ptr null
  %5 = extractvalue { ptr, i32 } %4, 0
  tail call void @__clang_call_terminate(ptr %5) #14
  unreachable
}